target datalayout = "e-m:e-p270:32:32-p271:32:32-p272:64:64-i64:64-i128:128-f80:128-n8:16:32:64-S128"
target triple = "x86_64-pc-linux-gnu"

%struct.string_list = type { ptr, i64, i64, i8, ptr }
%struct.string_list_item = type { ptr, ptr }

; Function Attrs: nounwind uwtable
define dso_local i32 @for_each_string_list(ptr noundef %0, ptr noundef %1, ptr noundef %2) #0 {
  %4 = alloca ptr, align 8
  %5 = alloca ptr, align 8
  %6 = alloca ptr, align 8
  %7 = alloca i32, align 4
  %8 = alloca i32, align 4
  store ptr %0, ptr %4, align 8, !tbaa !4
  store ptr %1, ptr %5, align 8, !tbaa !25
  store ptr %2, ptr %6, align 8, !tbaa !25
  call void @llvm.lifetime.start.p0(i64 4, ptr %7) #9
  call void @llvm.lifetime.start.p0(i64 4, ptr %8) #9
  store i32 0, ptr %8, align 4, !tbaa !11
  store i32 0, ptr %7, align 4, !tbaa !11
  br label %9

9:                                                ; preds = %29, %3
  %10 = load i32, ptr %7, align 4, !tbaa !11
  %11 = sext i32 %10 to i64
  %12 = load ptr, ptr %4, align 8, !tbaa !4
  %13 = getelementptr inbounds nuw %struct.string_list, ptr %12, i32 0, i32 1
  %14 = load i64, ptr %13, align 8, !tbaa !17
  %15 = icmp ult i64 %11, %14
  br i1 %15, label %16, label %32

16:                                               ; preds = %9
  %17 = load ptr, ptr %5, align 8, !tbaa !25
  %18 = load ptr, ptr %4, align 8, !tbaa !4
  %19 = getelementptr inbounds nuw %struct.string_list, ptr %18, i32 0, i32 0
  %20 = load ptr, ptr %19, align 8, !tbaa !13
  %21 = load i32, ptr %7, align 4, !tbaa !11
  %22 = sext i32 %21 to i64
  %23 = getelementptr inbounds %struct.string_list_item, ptr %20, i64 %22
  %24 = load ptr, ptr %6, align 8, !tbaa !25
  %25 = call i32 %17(ptr noundef %23, ptr noundef %24)
  store i32 %25, ptr %8, align 4, !tbaa !11
  %26 = icmp ne i32 %25, 0
  br i1 %26, label %27, label %28

27:                                               ; preds = %16
  br label %32

28:                                               ; preds = %16
  br label %29

29:                                               ; preds = %28
  %30 = load i32, ptr %7, align 4, !tbaa !11
  %31 = add nsw i32 %30, 1
  store i32 %31, ptr %7, align 4, !tbaa !11
  br label %9, !llvm.loop !31

32:                                               ; preds = %27, %9
  %33 = load i32, ptr %8, align 4, !tbaa !11
  call void @llvm.lifetime.end.p0(i64 4, ptr %8) #9
  call void @llvm.lifetime.end.p0(i64 4, ptr %7) #9
  ret i32 %33
}