; Function Attrs: nounwind uwtable
define dso_local i32 @for_each_string_list(ptr noundef readonly captures(none) %0, ptr noundef readonly captures(none) %1, ptr noundef %2) local_unnamed_addr #4 {
  %4 = getelementptr inbounds nuw i8, ptr %0, i64 8
  %5 = load i64, ptr %4, align 8, !tbaa !4
  %.not14 = icmp eq i64 %5, 0
  br i1 %.not14, label %._crit_edge, label %.lr.ph

6:                                                ; preds = %.lr.ph
  %indvars.iv.next = add nuw nsw i64 %indvars.iv, 1
  %7 = load i64, ptr %4, align 8, !tbaa !4
  %8 = icmp ugt i64 %7, %indvars.iv.next
  br i1 %8, label %.lr.ph, label %._crit_edge, !llvm.loop !25

.lr.ph:                                           ; preds = %3, %6
  %indvars.iv = phi i64 [ %indvars.iv.next, %6 ], [ 0, %3 ]
  %9 = load ptr, ptr %0, align 8, !tbaa !13
  %10 = getelementptr inbounds nuw %struct.string_list_item, ptr %9, i64 %indvars.iv
  %11 = tail call i32 %1(ptr noundef %10, ptr noundef %2) #11
  %.not = icmp eq i32 %11, 0
  br i1 %.not, label %6, label %._crit_edge

._crit_edge:                                      ; preds = %6, %.lr.ph, %3
  %.1 = phi i32 [ 0, %3 ], [ %11, %.lr.ph ], [ 0, %6 ]
  ret i32 %.1
}